target datalayout = "e-m:e-p270:32:32-p271:32:32-p272:64:64-i64:64-i128:128-f80:128-n8:16:32:64-S128"
target triple = "x86_64-pc-linux-gnu"

%"class.spacer::pob" = type { i32, %class.ref, ptr, %class.obj_ref, %class.ref_vector, %class.obj_ref, i64, i32, %class.scoped_ptr, %class.ptr_vector.0, %class.ptr_vector.2, i32, %class.obj_ref, i32, %class.scoped_ptr.4 }
%class.ref = type { ptr }
%class.ref_vector = type { %class.ref_vector_core }
%class.ref_vector_core = type { %class.ref_manager_wrapper, %class.ptr_vector }
%class.ref_manager_wrapper = type { ptr }
%class.ptr_vector = type { %class.vector }
%class.vector = type { ptr }
%class.scoped_ptr = type { ptr }
%class.ptr_vector.0 = type { %class.vector.1 }
%class.vector.1 = type { ptr }
%class.ptr_vector.2 = type { %class.vector.3 }
%class.vector.3 = type { ptr }
%class.obj_ref = type { ptr, ptr }
%class.scoped_ptr.4 = type { ptr }
%"class.spacer::pob_queue" = type { %class.ref, i32, i32, %"class.std::priority_queue" }
%"class.std::priority_queue" = type <{ %"class.std::vector", [8 x i8] }>
%"class.std::vector" = type { %"struct.std::_Vector_base" }
%"struct.std::_Vector_base" = type { %"struct.std::_Vector_base<spacer::pob *, std::allocator<spacer::pob *>>::_Vector_impl" }
%"struct.std::_Vector_base<spacer::pob *, std::allocator<spacer::pob *>>::_Vector_impl" = type { %"struct.std::_Vector_base<spacer::pob *, std::allocator<spacer::pob *>>::_Vector_impl_data" }
%"struct.std::_Vector_base<spacer::pob *, std::allocator<spacer::pob *>>::_Vector_impl_data" = type { ptr, ptr, ptr }
%"class.__gnu_cxx::__normal_iterator.289" = type { ptr }

; Function Attrs: mustprogress nounwind uwtable
define linkonce_odr hidden noundef nonnull align 8 dereferenceable(8) ptr @_ZNK9__gnu_cxx17__normal_iteratorIPKPN6spacer3pobESt6vectorIS3_SaIS3_EEE4baseEv(ptr noundef nonnull align 8 dereferenceable(8) %0) #5 comdat align 2 {
  %2 = alloca ptr, align 8
  store ptr %0, ptr %2, align 8, !tbaa !1642
  %3 = load ptr, ptr %2, align 8
  %4 = getelementptr inbounds nuw %"class.__gnu_cxx::__normal_iterator.289", ptr %3, i32 0, i32 0
  ret ptr %4
}

; Function Attrs: mustprogress nounwind uwtable
define linkonce_odr hidden void @_ZN9__gnu_cxx17__normal_iteratorIPKPN6spacer3pobESt6vectorIS3_SaIS3_EEEC2ERKS5_(ptr noundef nonnull align 8 dereferenceable(8) %0, ptr noundef nonnull align 8 dereferenceable(8) %1) unnamed_addr #5 comdat align 2 {
  %3 = alloca ptr, align 8
  %4 = alloca ptr, align 8
  store ptr %0, ptr %3, align 8, !tbaa !1642
  store ptr %1, ptr %4, align 8, !tbaa !1471
  %5 = load ptr, ptr %3, align 8
  %6 = getelementptr inbounds nuw %"class.__gnu_cxx::__normal_iterator.289", ptr %5, i32 0, i32 0
  %7 = load ptr, ptr %4, align 8, !tbaa !1471
  %8 = load ptr, ptr %7, align 8, !tbaa !178
  store ptr %8, ptr %6, align 8, !tbaa !1644
  ret void
}

; Function Attrs: mustprogress nounwind uwtable
define linkonce_odr hidden noundef nonnull align 8 dereferenceable(8) ptr @_ZNK9__gnu_cxx17__normal_iteratorIPKPN6spacer3pobESt6vectorIS3_SaIS3_EEEdeEv(ptr noundef nonnull align 8 dereferenceable(8) %0) #5 comdat align 2 {
  %2 = alloca ptr, align 8
  store ptr %0, ptr %2, align 8, !tbaa !1642
  %3 = load ptr, ptr %2, align 8
  %4 = getelementptr inbounds nuw %"class.__gnu_cxx::__normal_iterator.289", ptr %3, i32 0, i32 0
  %5 = load ptr, ptr %4, align 8, !tbaa !1644
  ret ptr %5
}

; Function Attrs: mustprogress nounwind uwtable
define linkonce_odr hidden noundef zeroext i1 @_ZN9__gnu_cxxeqIPKPN6spacer3pobESt6vectorIS3_SaIS3_EEEEbRKNS_17__normal_iteratorIT_T0_EESE_QrqXeqcldtfp_4baseEcldtfp0_4baseERSt14convertible_toIbEE(ptr noundef nonnull align 8 dereferenceable(8) %0, ptr noundef nonnull align 8 dereferenceable(8) %1) #5 comdat {
  %3 = alloca ptr, align 8
  %4 = alloca ptr, align 8
  store ptr %0, ptr %3, align 8, !tbaa !1642
  store ptr %1, ptr %4, align 8, !tbaa !1642
  %5 = load ptr, ptr %3, align 8, !tbaa !1642
  %6 = call noundef nonnull align 8 dereferenceable(8) ptr @_ZNK9__gnu_cxx17__normal_iteratorIPKPN6spacer3pobESt6vectorIS3_SaIS3_EEE4baseEv(ptr noundef nonnull align 8 dereferenceable(8) %5) #3
  %7 = load ptr, ptr %6, align 8, !tbaa !178
  %8 = load ptr, ptr %4, align 8, !tbaa !1642
  %9 = call noundef nonnull align 8 dereferenceable(8) ptr @_ZNK9__gnu_cxx17__normal_iteratorIPKPN6spacer3pobESt6vectorIS3_SaIS3_EEE4baseEv(ptr noundef nonnull align 8 dereferenceable(8) %8) #3
  %10 = load ptr, ptr %9, align 8, !tbaa !178
  %11 = icmp eq ptr %7, %10
  ret i1 %11
}

; Function Attrs: mustprogress nounwind uwtable
define linkonce_odr hidden ptr @_ZNKSt6vectorIPN6spacer3pobESaIS2_EE3endEv(ptr noundef nonnull align 8 dereferenceable(24) %0) #5 comdat align 2 {
  %2 = alloca %"class.__gnu_cxx::__normal_iterator.289", align 8
  %3 = alloca ptr, align 8
  store ptr %0, ptr %3, align 8, !tbaa !1477
  %4 = load ptr, ptr %3, align 8
  %5 = getelementptr inbounds nuw %"struct.std::_Vector_base", ptr %4, i32 0, i32 0
  %6 = getelementptr inbounds nuw %"struct.std::_Vector_base<spacer::pob *, std::allocator<spacer::pob *>>::_Vector_impl_data", ptr %5, i32 0, i32 1
  call void @_ZN9__gnu_cxx17__normal_iteratorIPKPN6spacer3pobESt6vectorIS3_SaIS3_EEEC2ERKS5_(ptr noundef nonnull align 8 dereferenceable(8) %2, ptr noundef nonnull align 8 dereferenceable(8) %6) #3
  %7 = getelementptr inbounds nuw %"class.__gnu_cxx::__normal_iterator.289", ptr %2, i32 0, i32 0
  %8 = load ptr, ptr %7, align 8
  ret ptr %8
}

; Function Attrs: mustprogress nounwind uwtable
define linkonce_odr hidden ptr @_ZNKSt6vectorIPN6spacer3pobESaIS2_EE5beginEv(ptr noundef nonnull align 8 dereferenceable(24) %0) #5 comdat align 2 {
  %2 = alloca %"class.__gnu_cxx::__normal_iterator.289", align 8
  %3 = alloca ptr, align 8
  store ptr %0, ptr %3, align 8, !tbaa !1477
  %4 = load ptr, ptr %3, align 8
  %5 = getelementptr inbounds nuw %"struct.std::_Vector_base", ptr %4, i32 0, i32 0
  %6 = getelementptr inbounds nuw %"struct.std::_Vector_base<spacer::pob *, std::allocator<spacer::pob *>>::_Vector_impl_data", ptr %5, i32 0, i32 0
  call void @_ZN9__gnu_cxx17__normal_iteratorIPKPN6spacer3pobESt6vectorIS3_SaIS3_EEEC2ERKS5_(ptr noundef nonnull align 8 dereferenceable(8) %2, ptr noundef nonnull align 8 dereferenceable(8) %6) #3
  %7 = getelementptr inbounds nuw %"class.__gnu_cxx::__normal_iterator.289", ptr %2, i32 0, i32 0
  %8 = load ptr, ptr %7, align 8
  ret ptr %8
}

; Function Attrs: mustprogress uwtable
define linkonce_odr hidden void @_Z7deallocIN6spacer3pobEEvPT_(ptr noundef %0) #4 comdat {
  %2 = alloca ptr, align 8
  store ptr %0, ptr %2, align 8, !tbaa !3
  %3 = load ptr, ptr %2, align 8, !tbaa !3
  %4 = icmp eq ptr %3, null
  br i1 %4, label %5, label %6

5:                                                ; preds = %1
  br label %9

6:                                                ; preds = %1
  %7 = load ptr, ptr %2, align 8, !tbaa !3
  call void @_ZN6spacer3pobD2Ev(ptr noundef nonnull align 8 dereferenceable(152) %7) #3
  %8 = load ptr, ptr %2, align 8, !tbaa !3
  call void @_ZN6memory10deallocateEPv(ptr noundef %8)
  br label %9

9:                                                ; preds = %6, %5
  ret void
}

; Function Attrs: mustprogress nounwind uwtable
define linkonce_odr hidden noundef nonnull align 8 dereferenceable(8) ptr @_ZNKSt6vectorIPN6spacer3pobESaIS2_EE5frontEv(ptr noundef nonnull align 8 dereferenceable(24) %0) #5 comdat align 2 {
  %2 = alloca ptr, align 8
  %3 = alloca %"class.__gnu_cxx::__normal_iterator.289", align 8
  store ptr %0, ptr %2, align 8, !tbaa !1477
  %4 = load ptr, ptr %2, align 8
  call void @llvm.lifetime.start.p0(i64 8, ptr %3) #3
  %5 = call ptr @_ZNKSt6vectorIPN6spacer3pobESaIS2_EE5beginEv(ptr noundef nonnull align 8 dereferenceable(24) %4) #3
  %6 = getelementptr inbounds nuw %"class.__gnu_cxx::__normal_iterator.289", ptr %3, i32 0, i32 0
  store ptr %5, ptr %6, align 8
  %7 = call noundef nonnull align 8 dereferenceable(8) ptr @_ZNK9__gnu_cxx17__normal_iteratorIPKPN6spacer3pobESt6vectorIS3_SaIS3_EEEdeEv(ptr noundef nonnull align 8 dereferenceable(8) %3) #3
  call void @llvm.lifetime.end.p0(i64 8, ptr %3) #3
  ret ptr %7
}

; Function Attrs: mustprogress nounwind uwtable
define linkonce_odr hidden noundef zeroext i1 @_ZNKSt6vectorIPN6spacer3pobESaIS2_EE5emptyEv(ptr noundef nonnull align 8 dereferenceable(24) %0) #5 comdat align 2 {
  %2 = alloca ptr, align 8
  %3 = alloca %"class.__gnu_cxx::__normal_iterator.289", align 8
  %4 = alloca %"class.__gnu_cxx::__normal_iterator.289", align 8
  store ptr %0, ptr %2, align 8, !tbaa !1477
  %5 = load ptr, ptr %2, align 8
  call void @llvm.lifetime.start.p0(i64 8, ptr %3) #3
  %6 = call ptr @_ZNKSt6vectorIPN6spacer3pobESaIS2_EE5beginEv(ptr noundef nonnull align 8 dereferenceable(24) %5) #3
  %7 = getelementptr inbounds nuw %"class.__gnu_cxx::__normal_iterator.289", ptr %3, i32 0, i32 0
  store ptr %6, ptr %7, align 8
  call void @llvm.lifetime.start.p0(i64 8, ptr %4) #3
  %8 = call ptr @_ZNKSt6vectorIPN6spacer3pobESaIS2_EE3endEv(ptr noundef nonnull align 8 dereferenceable(24) %5) #3
  %9 = getelementptr inbounds nuw %"class.__gnu_cxx::__normal_iterator.289", ptr %4, i32 0, i32 0
  store ptr %8, ptr %9, align 8
  %10 = call noundef zeroext i1 @_ZN9__gnu_cxxeqIPKPN6spacer3pobESt6vectorIS3_SaIS3_EEEEbRKNS_17__normal_iteratorIT_T0_EESE_QrqXeqcldtfp_4baseEcldtfp0_4baseERSt14convertible_toIbEE(ptr noundef nonnull align 8 dereferenceable(8) %3, ptr noundef nonnull align 8 dereferenceable(8) %4) #3
  call void @llvm.lifetime.end.p0(i64 8, ptr %4) #3
  call void @llvm.lifetime.end.p0(i64 8, ptr %3) #3
  ret i1 %10
}

; Function Attrs: mustprogress uwtable
define linkonce_odr hidden void @_ZN6spacer3pob7dec_refEv(ptr noundef nonnull align 8 dereferenceable(152) %0) #4 comdat align 2 {
  %2 = alloca ptr, align 8
  store ptr %0, ptr %2, align 8, !tbaa !3
  %3 = load ptr, ptr %2, align 8
  %4 = getelementptr inbounds nuw %"class.spacer::pob", ptr %3, i32 0, i32 0
  %5 = load i32, ptr %4, align 8, !tbaa !14
  %6 = add i32 %5, -1
  store i32 %6, ptr %4, align 8, !tbaa !14
  %7 = getelementptr inbounds nuw %"class.spacer::pob", ptr %3, i32 0, i32 0
  %8 = load i32, ptr %7, align 8, !tbaa !14
  %9 = icmp eq i32 %8, 0
  br i1 %9, label %10, label %11

10:                                               ; preds = %1
  call void @_Z7deallocIN6spacer3pobEEvPT_(ptr noundef %3)
  br label %11

11:                                               ; preds = %10, %1
  ret void
}

; Function Attrs: mustprogress nounwind uwtable
define linkonce_odr hidden noundef ptr @_ZNK3refIN6spacer3pobEE3getEv(ptr noundef nonnull align 8 dereferenceable(8) %0) #5 comdat align 2 {
  %2 = alloca ptr, align 8
  store ptr %0, ptr %2, align 8, !tbaa !42
  %3 = load ptr, ptr %2, align 8
  %4 = getelementptr inbounds nuw %class.ref, ptr %3, i32 0, i32 0
  %5 = load ptr, ptr %4, align 8, !tbaa !44
  ret ptr %5
}

; Function Attrs: mustprogress nounwind uwtable
define linkonce_odr hidden noundef ptr @_ZNK3refIN6spacer3pobEEptEv(ptr noundef nonnull align 8 dereferenceable(8) %0) #5 comdat align 2 {
  %2 = alloca ptr, align 8
  store ptr %0, ptr %2, align 8, !tbaa !42
  %3 = load ptr, ptr %2, align 8
  %4 = getelementptr inbounds nuw %class.ref, ptr %3, i32 0, i32 0
  %5 = load ptr, ptr %4, align 8, !tbaa !44
  ret ptr %5
}

; Function Attrs: mustprogress nounwind uwtable
define linkonce_odr hidden noundef zeroext i1 @_ZNK3refIN6spacer3pobEEcvbEv(ptr noundef nonnull align 8 dereferenceable(8) %0) #5 comdat align 2 {
  %2 = alloca ptr, align 8
  store ptr %0, ptr %2, align 8, !tbaa !42
  %3 = load ptr, ptr %2, align 8
  %4 = getelementptr inbounds nuw %class.ref, ptr %3, i32 0, i32 0
  %5 = load ptr, ptr %4, align 8, !tbaa !44
  %6 = icmp ne ptr %5, null
  ret i1 %6
}

; Function Attrs: mustprogress nounwind uwtable
define linkonce_odr hidden void @_ZN6spacer3pob12set_in_queueEb(ptr noundef nonnull align 8 dereferenceable(152) %0, i1 noundef zeroext %1) #5 comdat align 2 {
  %3 = alloca ptr, align 8
  %4 = alloca i8, align 1
  store ptr %0, ptr %3, align 8, !tbaa !3
  %5 = zext i1 %1 to i8
  store i8 %5, ptr %4, align 1, !tbaa !12
  %6 = load ptr, ptr %3, align 8
  %7 = load i8, ptr %4, align 1, !tbaa !12, !range !40, !noundef !41
  %8 = trunc i8 %7 to i1
  %9 = zext i1 %8 to i32
  %10 = getelementptr inbounds nuw %"class.spacer::pob", ptr %6, i32 0, i32 6
  %11 = zext i32 %9 to i64
  %12 = load i64, ptr %10, align 8
  %13 = and i64 %11, 1
  %14 = shl i64 %13, 50
  %15 = and i64 %12, -1125899906842625
  %16 = or i64 %15, %14
  store i64 %16, ptr %10, align 8
  ret void
}

; Function Attrs: mustprogress nounwind uwtable
define linkonce_odr hidden noundef nonnull align 8 dereferenceable(8) ptr @_ZNKSt14priority_queueIPN6spacer3pobESt6vectorIS2_SaIS2_EENS0_11pob_gt_procEE3topEv(ptr noundef nonnull align 8 dereferenceable(25) %0) #5 comdat align 2 {
  %2 = alloca ptr, align 8
  store ptr %0, ptr %2, align 8, !tbaa !201
  %3 = load ptr, ptr %2, align 8
  %4 = getelementptr inbounds nuw %"class.std::priority_queue", ptr %3, i32 0, i32 0
  %5 = call noundef nonnull align 8 dereferenceable(8) ptr @_ZNKSt6vectorIPN6spacer3pobESaIS2_EE5frontEv(ptr noundef nonnull align 8 dereferenceable(24) %4) #3
  ret ptr %5
}

; Function Attrs: mustprogress nounwind uwtable
define linkonce_odr hidden noundef zeroext i1 @_ZNKSt14priority_queueIPN6spacer3pobESt6vectorIS2_SaIS2_EENS0_11pob_gt_procEE5emptyEv(ptr noundef nonnull align 8 dereferenceable(25) %0) #5 comdat align 2 {
  %2 = alloca ptr, align 8
  store ptr %0, ptr %2, align 8, !tbaa !201
  %3 = load ptr, ptr %2, align 8
  %4 = getelementptr inbounds nuw %"class.std::priority_queue", ptr %3, i32 0, i32 0
  %5 = call noundef zeroext i1 @_ZNKSt6vectorIPN6spacer3pobESaIS2_EE5emptyEv(ptr noundef nonnull align 8 dereferenceable(24) %4) #3
  ret i1 %5
}

; Function Attrs: mustprogress uwtable
define linkonce_odr hidden void @_ZN3refIN6spacer3pobEE7dec_refEv(ptr noundef nonnull align 8 dereferenceable(8) %0) #4 comdat align 2 {
  %2 = alloca ptr, align 8
  store ptr %0, ptr %2, align 8, !tbaa !42
  %3 = load ptr, ptr %2, align 8
  %4 = getelementptr inbounds nuw %class.ref, ptr %3, i32 0, i32 0
  %5 = load ptr, ptr %4, align 8, !tbaa !44
  %6 = icmp ne ptr %5, null
  br i1 %6, label %7, label %10

7:                                                ; preds = %1
  %8 = getelementptr inbounds nuw %class.ref, ptr %3, i32 0, i32 0
  %9 = load ptr, ptr %8, align 8, !tbaa !44
  call void @_ZN6spacer3pob7dec_refEv(ptr noundef nonnull align 8 dereferenceable(152) %9)
  br label %10

10:                                               ; preds = %7, %1
  ret void
}

; Function Attrs: mustprogress nounwind uwtable
define linkonce_odr hidden void @_ZN6spacer3pob7inc_refEv(ptr noundef nonnull align 8 dereferenceable(152) %0) #5 comdat align 2 {
  %2 = alloca ptr, align 8
  store ptr %0, ptr %2, align 8, !tbaa !3
  %3 = load ptr, ptr %2, align 8
  %4 = getelementptr inbounds nuw %"class.spacer::pob", ptr %3, i32 0, i32 0
  %5 = load i32, ptr %4, align 8, !tbaa !14
  %6 = add i32 %5, 1
  store i32 %6, ptr %4, align 8, !tbaa !14
  ret void
}

; Function Attrs: mustprogress uwtable
define hidden void @_ZN6spacer9pob_queue5resetEv(ptr noundef nonnull align 8 dereferenceable(48) %0) #4 align 2 {
  %2 = alloca ptr, align 8
  %3 = alloca ptr, align 8
  %4 = alloca ptr, align 8
  store ptr %0, ptr %2, align 8, !tbaa !197
  %5 = load ptr, ptr %2, align 8
  br label %6

6:                                                ; preds = %10, %1
  %7 = getelementptr inbounds nuw %"class.spacer::pob_queue", ptr %5, i32 0, i32 3
  %8 = call noundef zeroext i1 @_ZNKSt14priority_queueIPN6spacer3pobESt6vectorIS2_SaIS2_EENS0_11pob_gt_procEE5emptyEv(ptr noundef nonnull align 8 dereferenceable(25) %7)
  %9 = xor i1 %8, true
  br i1 %9, label %10, label %16

10:                                               ; preds = %6
  call void @llvm.lifetime.start.p0(i64 8, ptr %3) #3
  %11 = getelementptr inbounds nuw %"class.spacer::pob_queue", ptr %5, i32 0, i32 3
  %12 = call noundef nonnull align 8 dereferenceable(8) ptr @_ZNKSt14priority_queueIPN6spacer3pobESt6vectorIS2_SaIS2_EENS0_11pob_gt_procEE3topEv(ptr noundef nonnull align 8 dereferenceable(25) %11)
  %13 = load ptr, ptr %12, align 8, !tbaa !3
  store ptr %13, ptr %3, align 8, !tbaa !3
  %14 = getelementptr inbounds nuw %"class.spacer::pob_queue", ptr %5, i32 0, i32 3
  call void @_ZNSt14priority_queueIPN6spacer3pobESt6vectorIS2_SaIS2_EENS0_11pob_gt_procEE3popEv(ptr noundef nonnull align 8 dereferenceable(25) %14)
  %15 = load ptr, ptr %3, align 8, !tbaa !3
  call void @_ZN6spacer3pob12set_in_queueEb(ptr noundef nonnull align 8 dereferenceable(152) %15, i1 noundef zeroext false)
  call void @llvm.lifetime.end.p0(i64 8, ptr %3) #3
  br label %6, !llvm.loop !203

16:                                               ; preds = %6
  %17 = getelementptr inbounds nuw %"class.spacer::pob_queue", ptr %5, i32 0, i32 0
  %18 = call noundef zeroext i1 @_ZNK3refIN6spacer3pobEEcvbEv(ptr noundef nonnull align 8 dereferenceable(8) %17)
  br i1 %18, label %19, label %25

19:                                               ; preds = %16
  %20 = getelementptr inbounds nuw %"class.spacer::pob_queue", ptr %5, i32 0, i32 0
  %21 = call noundef ptr @_ZNK3refIN6spacer3pobEEptEv(ptr noundef nonnull align 8 dereferenceable(8) %20)
  call void @_ZN6spacer3pob12set_in_queueEb(ptr noundef nonnull align 8 dereferenceable(152) %21, i1 noundef zeroext true)
  %22 = getelementptr inbounds nuw %"class.spacer::pob_queue", ptr %5, i32 0, i32 3
  call void @llvm.lifetime.start.p0(i64 8, ptr %4) #3
  %23 = getelementptr inbounds nuw %"class.spacer::pob_queue", ptr %5, i32 0, i32 0
  %24 = call noundef ptr @_ZNK3refIN6spacer3pobEE3getEv(ptr noundef nonnull align 8 dereferenceable(8) %23)
  store ptr %24, ptr %4, align 8, !tbaa !3
  call void @_ZNSt14priority_queueIPN6spacer3pobESt6vectorIS2_SaIS2_EENS0_11pob_gt_procEE4pushEOS2_(ptr noundef nonnull align 8 dereferenceable(25) %22, ptr noundef nonnull align 8 dereferenceable(8) %4)
  call void @llvm.lifetime.end.p0(i64 8, ptr %4) #3
  br label %25

25:                                               ; preds = %19, %16
  ret void
}

; Function Attrs: mustprogress nounwind uwtable
define linkonce_odr hidden noundef i32 @_ZNK6spacer3pob5depthEv(ptr noundef nonnull align 8 dereferenceable(152) %0) #5 comdat align 2 {
  %2 = alloca ptr, align 8
  store ptr %0, ptr %2, align 8, !tbaa !3
  %3 = load ptr, ptr %2, align 8
  %4 = getelementptr inbounds nuw %"class.spacer::pob", ptr %3, i32 0, i32 6
  %5 = load i64, ptr %4, align 8
  %6 = lshr i64 %5, 16
  %7 = and i64 %6, 65535
  %8 = trunc i64 %7 to i32
  ret i32 %8
}

; Function Attrs: mustprogress nounwind uwtable
define linkonce_odr hidden noundef i32 @_ZNK6spacer3pob5levelEv(ptr noundef nonnull align 8 dereferenceable(152) %0) #5 comdat align 2 {
  %2 = alloca ptr, align 8
  store ptr %0, ptr %2, align 8, !tbaa !3
  %3 = load ptr, ptr %2, align 8
  %4 = getelementptr inbounds nuw %"class.spacer::pob", ptr %3, i32 0, i32 6
  %5 = load i64, ptr %4, align 8
  %6 = and i64 %5, 65535
  %7 = trunc i64 %6 to i32
  ret i32 %7
}

; Function Attrs: mustprogress uwtable
define linkonce_odr hidden noundef nonnull align 8 dereferenceable(8) ptr @_ZN3refIN6spacer3pobEEaSEPS1_(ptr noundef nonnull align 8 dereferenceable(8) %0, ptr noundef %1) #4 comdat align 2 {
  %3 = alloca ptr, align 8
  %4 = alloca ptr, align 8
  store ptr %0, ptr %3, align 8, !tbaa !42
  store ptr %1, ptr %4, align 8, !tbaa !3
  %5 = load ptr, ptr %3, align 8
  %6 = load ptr, ptr %4, align 8, !tbaa !3
  %7 = icmp ne ptr %6, null
  br i1 %7, label %8, label %10

8:                                                ; preds = %2
  %9 = load ptr, ptr %4, align 8, !tbaa !3
  call void @_ZN6spacer3pob7inc_refEv(ptr noundef nonnull align 8 dereferenceable(152) %9)
  br label %10

10:                                               ; preds = %8, %2
  call void @_ZN3refIN6spacer3pobEE7dec_refEv(ptr noundef nonnull align 8 dereferenceable(8) %5)
  %11 = load ptr, ptr %4, align 8, !tbaa !3
  %12 = getelementptr inbounds nuw %class.ref, ptr %5, i32 0, i32 0
  store ptr %11, ptr %12, align 8, !tbaa !44
  ret ptr %5
}

; Function Attrs: mustprogress uwtable
define hidden void @_ZN6spacer9pob_queue8set_rootERNS_3pobE(ptr noundef nonnull align 8 dereferenceable(48) %0, ptr noundef nonnull align 8 dereferenceable(152) %1) #4 align 2 {
  %3 = alloca ptr, align 8
  %4 = alloca ptr, align 8
  store ptr %0, ptr %3, align 8, !tbaa !197
  store ptr %1, ptr %4, align 8, !tbaa !3
  %5 = load ptr, ptr %3, align 8
  %6 = load ptr, ptr %4, align 8, !tbaa !3
  %7 = getelementptr inbounds nuw %"class.spacer::pob_queue", ptr %5, i32 0, i32 0
  %8 = call noundef nonnull align 8 dereferenceable(8) ptr @_ZN3refIN6spacer3pobEEaSEPS1_(ptr noundef nonnull align 8 dereferenceable(8) %7, ptr noundef %6)
  %9 = load ptr, ptr %4, align 8, !tbaa !3
  %10 = call noundef i32 @_ZNK6spacer3pob5levelEv(ptr noundef nonnull align 8 dereferenceable(152) %9)
  %11 = getelementptr inbounds nuw %"class.spacer::pob_queue", ptr %5, i32 0, i32 1
  store i32 %10, ptr %11, align 8, !tbaa !199
  %12 = load ptr, ptr %4, align 8, !tbaa !3
  %13 = call noundef i32 @_ZNK6spacer3pob5depthEv(ptr noundef nonnull align 8 dereferenceable(152) %12)
  %14 = getelementptr inbounds nuw %"class.spacer::pob_queue", ptr %5, i32 0, i32 2
  store i32 %13, ptr %14, align 4, !tbaa !200
  call void @_ZN6spacer9pob_queue5resetEv(ptr noundef nonnull align 8 dereferenceable(48) %5)
  ret void
}