; Function Attrs: mustprogress uwtable
define hidden void @_ZN6spacer9pob_queue8set_rootERNS_3pobE(ptr noundef nonnull align 8 dereferenceable(48) initializes((8, 16)) %0, ptr noundef nonnull align 8 dereferenceable(152) %1) local_unnamed_addr #3 align 2 {
  %3 = alloca ptr, align 8
  %4 = load i32, ptr %1, align 8, !tbaa !3
  %5 = add i32 %4, 1
  store i32 %5, ptr %1, align 8, !tbaa !3
  %6 = load ptr, ptr %0, align 8, !tbaa !31
  %.not.i.i = icmp eq ptr %6, null
  br i1 %.not.i.i, label %_ZN3refIN6spacer3pobEEaSEPS1_.exit, label %7

7:                                                ; preds = %2
  %8 = load i32, ptr %6, align 8, !tbaa !3
  %9 = add i32 %8, -1
  store i32 %9, ptr %6, align 8, !tbaa !3
  %10 = icmp eq i32 %9, 0
  br i1 %10, label %_Z7deallocIN6spacer3pobEEvPT_.exit.i.i, label %_ZN3refIN6spacer3pobEEaSEPS1_.exit

_Z7deallocIN6spacer3pobEEvPT_.exit.i.i:           ; preds = %7
  tail call void @_ZN6spacer3pobD2Ev(ptr noundef nonnull align 8 dereferenceable(152) %6) #28
  tail call void @_ZN6memory10deallocateEPv(ptr noundef nonnull align 8 dereferenceable(152) %6)
  br label %_ZN3refIN6spacer3pobEEaSEPS1_.exit

_ZN3refIN6spacer3pobEEaSEPS1_.exit:               ; preds = %2, %7, %_Z7deallocIN6spacer3pobEEvPT_.exit.i.i
  store ptr %1, ptr %0, align 8, !tbaa !31
  %11 = getelementptr inbounds nuw i8, ptr %1, i64 72
  %12 = load i64, ptr %11, align 8
  %13 = trunc i64 %12 to i32
  %14 = and i32 %13, 65535
  %15 = getelementptr inbounds nuw i8, ptr %0, i64 8
  store i32 %14, ptr %15, align 8, !tbaa !166
  %16 = load i64, ptr %11, align 8
  %17 = trunc i64 %16 to i32
  %18 = lshr i32 %17, 16
  %19 = getelementptr inbounds nuw i8, ptr %0, i64 12
  store i32 %18, ptr %19, align 4, !tbaa !167
  %20 = getelementptr inbounds nuw i8, ptr %0, i64 16
  %21 = getelementptr inbounds nuw i8, ptr %0, i64 24
  %22 = load ptr, ptr %20, align 8, !tbaa !165
  %23 = load ptr, ptr %21, align 8, !tbaa !165
  %24 = icmp eq ptr %22, %23
  br i1 %24, label %._crit_edge.i.thread, label %.lr.ph.i

.lr.ph.i:                                         ; preds = %_ZN3refIN6spacer3pobEEaSEPS1_.exit, %.lr.ph.i
  %25 = phi ptr [ %30, %.lr.ph.i ], [ %22, %_ZN3refIN6spacer3pobEEaSEPS1_.exit ]
  %26 = load ptr, ptr %25, align 8, !tbaa !101
  tail call void @_ZNSt14priority_queueIPN6spacer3pobESt6vectorIS2_SaIS2_EENS0_11pob_gt_procEE3popEv(ptr noundef nonnull align 8 dereferenceable(25) %20)
  %27 = getelementptr inbounds nuw i8, ptr %26, i64 72
  %28 = load i64, ptr %27, align 8
  %29 = and i64 %28, -1125899906842625
  store i64 %29, ptr %27, align 8
  %30 = load ptr, ptr %20, align 8, !tbaa !165
  %31 = load ptr, ptr %21, align 8, !tbaa !165
  %32 = icmp eq ptr %30, %31
  br i1 %32, label %._crit_edge.i, label %.lr.ph.i, !llvm.loop !171

._crit_edge.i:                                    ; preds = %.lr.ph.i
  %.pre = load ptr, ptr %0, align 8, !tbaa !31
  %.not.i = icmp eq ptr %.pre, null
  br i1 %.not.i, label %_ZN6spacer9pob_queue5resetEv.exit, label %._crit_edge.i.thread

._crit_edge.i.thread:                             ; preds = %_ZN3refIN6spacer3pobEEaSEPS1_.exit, %._crit_edge.i
  %33 = phi ptr [ %.pre, %._crit_edge.i ], [ %1, %_ZN3refIN6spacer3pobEEaSEPS1_.exit ]
  %34 = getelementptr inbounds nuw i8, ptr %33, i64 72
  %35 = load i64, ptr %34, align 8
  %36 = or i64 %35, 1125899906842624
  store i64 %36, ptr %34, align 8
  call void @llvm.lifetime.start.p0(i64 8, ptr nonnull %3) #28
  %37 = load ptr, ptr %0, align 8, !tbaa !31
  store ptr %37, ptr %3, align 8, !tbaa !101
  call void @_ZNSt14priority_queueIPN6spacer3pobESt6vectorIS2_SaIS2_EENS0_11pob_gt_procEE4pushEOS2_(ptr noundef nonnull align 8 dereferenceable(25) %20, ptr noundef nonnull align 8 dereferenceable(8) %3)
  call void @llvm.lifetime.end.p0(i64 8, ptr nonnull %3) #28
  br label %_ZN6spacer9pob_queue5resetEv.exit

_ZN6spacer9pob_queue5resetEv.exit:                ; preds = %._crit_edge.i, %._crit_edge.i.thread
  ret void
}